target datalayout = "e-m:e-p270:32:32-p271:32:32-p272:64:64-i64:64-i128:128-f80:128-n8:16:32:64-S128"
target triple = "x86_64-pc-linux-gnu"

%"class.duckdb::CompressionFunction" = type <{ i8, i8, [6 x i8], ptr, ptr, ptr, ptr, ptr, ptr, ptr, ptr, ptr, ptr, ptr, ptr, ptr, ptr, ptr, ptr, ptr, ptr, ptr, ptr, ptr, ptr, ptr, i8, [7 x i8] }>

; Function Attrs: mustprogress nounwind uwtable
define linkonce_odr void @_ZN6duckdb19CompressionFunctionC2ENS_15CompressionTypeENS_12PhysicalTypeEPFNS_10unique_ptrINS_12AnalyzeStateESt14default_deleteIS4_ELb1EEERNS_10ColumnDataES2_EPFbRS4_RNS_6VectorEmEPFmSC_EPFNS3_INS_16CompressionStateES5_ISJ_ELb1EEERNS_24ColumnDataCheckpointDataES7_EPFvRSJ_SE_mEPFvSQ_EPFNS3_INS_16SegmentScanStateES5_ISV_ELb1EEERNS_13ColumnSegmentEEPFvSZ_RNS_15ColumnScanStateEmSE_EPFvSZ_S13_mSE_mEPFvSZ_RNS_16ColumnFetchStateElSE_mEPFvSZ_S13_mEPFNS3_INS_22CompressedSegmentStateES5_IS1E_ELb1EEESZ_lNS_12optional_ptrINS_18ColumnSegmentStateELb1EEEEPFNS3_INS_22CompressionAppendStateES5_IS1M_ELb1EEESZ_EPFmRS1M_SZ_RNS_17SegmentStatisticsERNS_19UnifiedVectorFormatEmmEPFmSZ_S1T_EPFvSZ_mEPFNS3_IS1I_S5_IS1I_ELb1EEESZ_EPFS23_RNS_12DeserializerEEPFvSZ_EPFvSZ_RNS_13PrefetchStateEEPFvSZ_S13_mSE_RKNS_15SelectionVectorEmEPFvSZ_S13_mSE_RS2G_RmRKNS_11TableFilterEE(ptr noundef nonnull align 8 dereferenceable(193) %0, i8 noundef zeroext %1, i8 noundef zeroext %2, ptr noundef %3, ptr noundef %4, ptr noundef %5, ptr noundef %6, ptr noundef %7, ptr noundef %8, ptr noundef %9, ptr noundef %10, ptr noundef %11, ptr noundef %12, ptr noundef %13, ptr noundef %14, ptr noundef %15, ptr noundef %16, ptr noundef %17, ptr noundef %18, ptr noundef %19, ptr noundef %20, ptr noundef %21, ptr noundef %22, ptr noundef %23, ptr noundef %24) unnamed_addr #1 comdat align 2 {
  %26 = alloca ptr, align 8
  %27 = alloca i8, align 1
  %28 = alloca i8, align 1
  %29 = alloca ptr, align 8
  %30 = alloca ptr, align 8
  %31 = alloca ptr, align 8
  %32 = alloca ptr, align 8
  %33 = alloca ptr, align 8
  %34 = alloca ptr, align 8
  %35 = alloca ptr, align 8
  %36 = alloca ptr, align 8
  %37 = alloca ptr, align 8
  %38 = alloca ptr, align 8
  %39 = alloca ptr, align 8
  %40 = alloca ptr, align 8
  %41 = alloca ptr, align 8
  %42 = alloca ptr, align 8
  %43 = alloca ptr, align 8
  %44 = alloca ptr, align 8
  %45 = alloca ptr, align 8
  %46 = alloca ptr, align 8
  %47 = alloca ptr, align 8
  %48 = alloca ptr, align 8
  %49 = alloca ptr, align 8
  %50 = alloca ptr, align 8
  store ptr %0, ptr %26, align 8, !tbaa !110
  store i8 %1, ptr %27, align 1, !tbaa !112
  store i8 %2, ptr %28, align 1, !tbaa !3
  store ptr %3, ptr %29, align 8, !tbaa !114
  store ptr %4, ptr %30, align 8, !tbaa !114
  store ptr %5, ptr %31, align 8, !tbaa !114
  store ptr %6, ptr %32, align 8, !tbaa !114
  store ptr %7, ptr %33, align 8, !tbaa !114
  store ptr %8, ptr %34, align 8, !tbaa !114
  store ptr %9, ptr %35, align 8, !tbaa !114
  store ptr %10, ptr %36, align 8, !tbaa !114
  store ptr %11, ptr %37, align 8, !tbaa !114
  store ptr %12, ptr %38, align 8, !tbaa !114
  store ptr %13, ptr %39, align 8, !tbaa !114
  store ptr %14, ptr %40, align 8, !tbaa !114
  store ptr %15, ptr %41, align 8, !tbaa !114
  store ptr %16, ptr %42, align 8, !tbaa !114
  store ptr %17, ptr %43, align 8, !tbaa !114
  store ptr %18, ptr %44, align 8, !tbaa !114
  store ptr %19, ptr %45, align 8, !tbaa !114
  store ptr %20, ptr %46, align 8, !tbaa !114
  store ptr %21, ptr %47, align 8, !tbaa !114
  store ptr %22, ptr %48, align 8, !tbaa !114
  store ptr %23, ptr %49, align 8, !tbaa !114
  store ptr %24, ptr %50, align 8, !tbaa !114
  %51 = load ptr, ptr %26, align 8
  %52 = getelementptr inbounds nuw %"class.duckdb::CompressionFunction", ptr %51, i32 0, i32 0
  %53 = load i8, ptr %27, align 1, !tbaa !112
  store i8 %53, ptr %52, align 8, !tbaa !115
  %54 = getelementptr inbounds nuw %"class.duckdb::CompressionFunction", ptr %51, i32 0, i32 1
  %55 = load i8, ptr %28, align 1, !tbaa !3
  store i8 %55, ptr %54, align 1, !tbaa !118
  %56 = getelementptr inbounds nuw %"class.duckdb::CompressionFunction", ptr %51, i32 0, i32 3
  %57 = load ptr, ptr %29, align 8, !tbaa !114
  store ptr %57, ptr %56, align 8, !tbaa !119
  %58 = getelementptr inbounds nuw %"class.duckdb::CompressionFunction", ptr %51, i32 0, i32 4
  %59 = load ptr, ptr %30, align 8, !tbaa !114
  store ptr %59, ptr %58, align 8, !tbaa !120
  %60 = getelementptr inbounds nuw %"class.duckdb::CompressionFunction", ptr %51, i32 0, i32 5
  %61 = load ptr, ptr %31, align 8, !tbaa !114
  store ptr %61, ptr %60, align 8, !tbaa !121
  %62 = getelementptr inbounds nuw %"class.duckdb::CompressionFunction", ptr %51, i32 0, i32 6
  %63 = load ptr, ptr %32, align 8, !tbaa !114
  store ptr %63, ptr %62, align 8, !tbaa !122
  %64 = getelementptr inbounds nuw %"class.duckdb::CompressionFunction", ptr %51, i32 0, i32 7
  %65 = load ptr, ptr %33, align 8, !tbaa !114
  store ptr %65, ptr %64, align 8, !tbaa !123
  %66 = getelementptr inbounds nuw %"class.duckdb::CompressionFunction", ptr %51, i32 0, i32 8
  %67 = load ptr, ptr %34, align 8, !tbaa !114
  store ptr %67, ptr %66, align 8, !tbaa !124
  %68 = getelementptr inbounds nuw %"class.duckdb::CompressionFunction", ptr %51, i32 0, i32 9
  %69 = load ptr, ptr %48, align 8, !tbaa !114
  store ptr %69, ptr %68, align 8, !tbaa !125
  %70 = getelementptr inbounds nuw %"class.duckdb::CompressionFunction", ptr %51, i32 0, i32 10
  %71 = load ptr, ptr %35, align 8, !tbaa !114
  store ptr %71, ptr %70, align 8, !tbaa !126
  %72 = getelementptr inbounds nuw %"class.duckdb::CompressionFunction", ptr %51, i32 0, i32 11
  %73 = load ptr, ptr %36, align 8, !tbaa !114
  store ptr %73, ptr %72, align 8, !tbaa !127
  %74 = getelementptr inbounds nuw %"class.duckdb::CompressionFunction", ptr %51, i32 0, i32 12
  %75 = load ptr, ptr %37, align 8, !tbaa !114
  store ptr %75, ptr %74, align 8, !tbaa !128
  %76 = getelementptr inbounds nuw %"class.duckdb::CompressionFunction", ptr %51, i32 0, i32 13
  %77 = load ptr, ptr %49, align 8, !tbaa !114
  store ptr %77, ptr %76, align 8, !tbaa !129
  %78 = getelementptr inbounds nuw %"class.duckdb::CompressionFunction", ptr %51, i32 0, i32 14
  %79 = load ptr, ptr %50, align 8, !tbaa !114
  store ptr %79, ptr %78, align 8, !tbaa !130
  %80 = getelementptr inbounds nuw %"class.duckdb::CompressionFunction", ptr %51, i32 0, i32 15
  %81 = load ptr, ptr %38, align 8, !tbaa !114
  store ptr %81, ptr %80, align 8, !tbaa !131
  %82 = getelementptr inbounds nuw %"class.duckdb::CompressionFunction", ptr %51, i32 0, i32 16
  %83 = load ptr, ptr %39, align 8, !tbaa !114
  store ptr %83, ptr %82, align 8, !tbaa !132
  %84 = getelementptr inbounds nuw %"class.duckdb::CompressionFunction", ptr %51, i32 0, i32 17
  %85 = load ptr, ptr %40, align 8, !tbaa !114
  store ptr %85, ptr %84, align 8, !tbaa !133
  %86 = getelementptr inbounds nuw %"class.duckdb::CompressionFunction", ptr %51, i32 0, i32 18
  %87 = load ptr, ptr %41, align 8, !tbaa !114
  store ptr %87, ptr %86, align 8, !tbaa !134
  %88 = getelementptr inbounds nuw %"class.duckdb::CompressionFunction", ptr %51, i32 0, i32 19
  %89 = load ptr, ptr %42, align 8, !tbaa !114
  store ptr %89, ptr %88, align 8, !tbaa !135
  %90 = getelementptr inbounds nuw %"class.duckdb::CompressionFunction", ptr %51, i32 0, i32 20
  %91 = load ptr, ptr %43, align 8, !tbaa !114
  store ptr %91, ptr %90, align 8, !tbaa !136
  %92 = getelementptr inbounds nuw %"class.duckdb::CompressionFunction", ptr %51, i32 0, i32 21
  %93 = load ptr, ptr %44, align 8, !tbaa !114
  store ptr %93, ptr %92, align 8, !tbaa !137
  %94 = getelementptr inbounds nuw %"class.duckdb::CompressionFunction", ptr %51, i32 0, i32 22
  %95 = load ptr, ptr %45, align 8, !tbaa !114
  store ptr %95, ptr %94, align 8, !tbaa !138
  %96 = getelementptr inbounds nuw %"class.duckdb::CompressionFunction", ptr %51, i32 0, i32 23
  %97 = load ptr, ptr %46, align 8, !tbaa !114
  store ptr %97, ptr %96, align 8, !tbaa !139
  %98 = getelementptr inbounds nuw %"class.duckdb::CompressionFunction", ptr %51, i32 0, i32 24
  %99 = load ptr, ptr %47, align 8, !tbaa !114
  store ptr %99, ptr %98, align 8, !tbaa !140
  %100 = getelementptr inbounds nuw %"class.duckdb::CompressionFunction", ptr %51, i32 0, i32 25
  store ptr null, ptr %100, align 8, !tbaa !141
  %101 = getelementptr inbounds nuw %"class.duckdb::CompressionFunction", ptr %51, i32 0, i32 26
  store i8 0, ptr %101, align 8, !tbaa !142
  ret void
}

; Function Attrs: mustprogress uwtable
define void @_ZN6duckdb14GetAlpFunctionIfEENS_19CompressionFunctionENS_12PhysicalTypeE(ptr dead_on_unwind noalias writable sret(%"class.duckdb::CompressionFunction") align 8 %0, i8 noundef zeroext %1) #0 {
  %3 = alloca i8, align 1
  store i8 %1, ptr %3, align 1, !tbaa !3
  %4 = load i8, ptr %3, align 1, !tbaa !3
  call void @_ZN6duckdb19CompressionFunctionC2ENS_15CompressionTypeENS_12PhysicalTypeEPFNS_10unique_ptrINS_12AnalyzeStateESt14default_deleteIS4_ELb1EEERNS_10ColumnDataES2_EPFbRS4_RNS_6VectorEmEPFmSC_EPFNS3_INS_16CompressionStateES5_ISJ_ELb1EEERNS_24ColumnDataCheckpointDataES7_EPFvRSJ_SE_mEPFvSQ_EPFNS3_INS_16SegmentScanStateES5_ISV_ELb1EEERNS_13ColumnSegmentEEPFvSZ_RNS_15ColumnScanStateEmSE_EPFvSZ_S13_mSE_mEPFvSZ_RNS_16ColumnFetchStateElSE_mEPFvSZ_S13_mEPFNS3_INS_22CompressedSegmentStateES5_IS1E_ELb1EEESZ_lNS_12optional_ptrINS_18ColumnSegmentStateELb1EEEEPFNS3_INS_22CompressionAppendStateES5_IS1M_ELb1EEESZ_EPFmRS1M_SZ_RNS_17SegmentStatisticsERNS_19UnifiedVectorFormatEmmEPFmSZ_S1T_EPFvSZ_mEPFNS3_IS1I_S5_IS1I_ELb1EEESZ_EPFS23_RNS_12DeserializerEEPFvSZ_EPFvSZ_RNS_13PrefetchStateEEPFvSZ_S13_mSE_RKNS_15SelectionVectorEmEPFvSZ_S13_mSE_RS2G_RmRKNS_11TableFilterEE(ptr noundef nonnull align 8 dereferenceable(193) %0, i8 noundef zeroext 10, i8 noundef zeroext %4, ptr noundef @_ZN6duckdb14AlpInitAnalyzeIfEENS_10unique_ptrINS_12AnalyzeStateESt14default_deleteIS2_ELb1EEERNS_10ColumnDataENS_12PhysicalTypeE, ptr noundef @_ZN6duckdb10AlpAnalyzeIfEEbRNS_12AnalyzeStateERNS_6VectorEm, ptr noundef @_ZN6duckdb15AlpFinalAnalyzeIfEEmRNS_12AnalyzeStateE, ptr noundef @_ZN6duckdb18AlpInitCompressionIfEENS_10unique_ptrINS_16CompressionStateESt14default_deleteIS2_ELb1EEERNS_24ColumnDataCheckpointDataENS1_INS_12AnalyzeStateES3_IS8_ELb1EEE, ptr noundef @_ZN6duckdb11AlpCompressIfEEvRNS_16CompressionStateERNS_6VectorEm, ptr noundef @_ZN6duckdb19AlpFinalizeCompressIfEEvRNS_16CompressionStateE, ptr noundef @_ZN6duckdb11AlpInitScanIfEENS_10unique_ptrINS_16SegmentScanStateESt14default_deleteIS2_ELb1EEERNS_13ColumnSegmentE, ptr noundef @_ZN6duckdb7AlpScanIfEEvRNS_13ColumnSegmentERNS_15ColumnScanStateEmRNS_6VectorE, ptr noundef @_ZN6duckdb14AlpScanPartialIfEEvRNS_13ColumnSegmentERNS_15ColumnScanStateEmRNS_6VectorEm, ptr noundef @_ZN6duckdb11AlpFetchRowIfEEvRNS_13ColumnSegmentERNS_16ColumnFetchStateElRNS_6VectorEm, ptr noundef @_ZN6duckdb7AlpSkipIfEEvRNS_13ColumnSegmentERNS_15ColumnScanStateEm, ptr noundef null, ptr noundef null, ptr noundef null, ptr noundef null, ptr noundef null, ptr noundef null, ptr noundef null, ptr noundef null, ptr noundef null, ptr noundef null, ptr noundef null)
  ret void
}