; Function Attrs: mustprogress nofree norecurse nosync nounwind willreturn memory(argmem: write) uwtable
define void @_ZN6duckdb14GetAlpFunctionIfEENS_19CompressionFunctionENS_12PhysicalTypeE(ptr dead_on_unwind noalias writable writeonly sret(%"class.duckdb::CompressionFunction") align 8 captures(none) initializes((0, 2), (8, 193)) %0, i8 noundef zeroext %1) local_unnamed_addr #0 {
  store i8 10, ptr %0, align 8, !tbaa !3
  %3 = getelementptr inbounds nuw i8, ptr %0, i64 1
  store i8 %1, ptr %3, align 1, !tbaa !11
  %4 = getelementptr inbounds nuw i8, ptr %0, i64 8
  store ptr @_ZN6duckdb14AlpInitAnalyzeIfEENS_10unique_ptrINS_12AnalyzeStateESt14default_deleteIS2_ELb1EEERNS_10ColumnDataENS_12PhysicalTypeE, ptr %4, align 8, !tbaa !12
  %5 = getelementptr inbounds nuw i8, ptr %0, i64 16
  store ptr @_ZN6duckdb10AlpAnalyzeIfEEbRNS_12AnalyzeStateERNS_6VectorEm, ptr %5, align 8, !tbaa !13
  %6 = getelementptr inbounds nuw i8, ptr %0, i64 24
  store ptr @_ZN6duckdb15AlpFinalAnalyzeIfEEmRNS_12AnalyzeStateE, ptr %6, align 8, !tbaa !14
  %7 = getelementptr inbounds nuw i8, ptr %0, i64 32
  store ptr @_ZN6duckdb18AlpInitCompressionIfEENS_10unique_ptrINS_16CompressionStateESt14default_deleteIS2_ELb1EEERNS_24ColumnDataCheckpointDataENS1_INS_12AnalyzeStateES3_IS8_ELb1EEE, ptr %7, align 8, !tbaa !15
  %8 = getelementptr inbounds nuw i8, ptr %0, i64 40
  store ptr @_ZN6duckdb11AlpCompressIfEEvRNS_16CompressionStateERNS_6VectorEm, ptr %8, align 8, !tbaa !16
  %9 = getelementptr inbounds nuw i8, ptr %0, i64 48
  store ptr @_ZN6duckdb19AlpFinalizeCompressIfEEvRNS_16CompressionStateE, ptr %9, align 8, !tbaa !17
  %10 = getelementptr inbounds nuw i8, ptr %0, i64 56
  store ptr null, ptr %10, align 8, !tbaa !18
  %11 = getelementptr inbounds nuw i8, ptr %0, i64 64
  store ptr @_ZN6duckdb11AlpInitScanIfEENS_10unique_ptrINS_16SegmentScanStateESt14default_deleteIS2_ELb1EEERNS_13ColumnSegmentE, ptr %11, align 8, !tbaa !19
  %12 = getelementptr inbounds nuw i8, ptr %0, i64 72
  store ptr @_ZN6duckdb7AlpScanIfEEvRNS_13ColumnSegmentERNS_15ColumnScanStateEmRNS_6VectorE, ptr %12, align 8, !tbaa !20
  %13 = getelementptr inbounds nuw i8, ptr %0, i64 80
  store ptr @_ZN6duckdb14AlpScanPartialIfEEvRNS_13ColumnSegmentERNS_15ColumnScanStateEmRNS_6VectorEm, ptr %13, align 8, !tbaa !21
  %14 = getelementptr inbounds nuw i8, ptr %0, i64 88
  %15 = getelementptr inbounds nuw i8, ptr %0, i64 104
  tail call void @llvm.memset.p0.i64(ptr noundef nonnull align 8 dereferenceable(16) %14, i8 0, i64 16, i1 false)
  store ptr @_ZN6duckdb11AlpFetchRowIfEEvRNS_13ColumnSegmentERNS_16ColumnFetchStateElRNS_6VectorEm, ptr %15, align 8, !tbaa !22
  %16 = getelementptr inbounds nuw i8, ptr %0, i64 112
  store ptr @_ZN6duckdb7AlpSkipIfEEvRNS_13ColumnSegmentERNS_15ColumnScanStateEm, ptr %16, align 8, !tbaa !23
  %17 = getelementptr inbounds nuw i8, ptr %0, i64 120
  tail call void @llvm.memset.p0.i64(ptr noundef nonnull align 8 dereferenceable(73) %17, i8 0, i64 73, i1 false)
  ret void
}